target datalayout = "e-m:e-p270:32:32-p271:32:32-p272:64:64-i64:64-i128:128-f80:128-n8:16:32:64-S128"
target triple = "x86_64-pc-linux-gnu"

%struct.__va_list_tag = type { i32, i32, ptr, ptr }

@.str = private unnamed_addr constant [1 x i8] zeroinitializer, align 1

; Function Attrs: null_pointer_is_valid sspstrong uwtable
define noalias ptr @wmem_strjoin(ptr noundef %0, ptr noundef %1, ptr noundef %2, ...) #0 {
  %4 = alloca ptr, align 8
  %5 = alloca ptr, align 8
  %6 = alloca ptr, align 8
  %7 = alloca ptr, align 8
  %8 = alloca i64, align 8
  %9 = alloca [1 x %struct.__va_list_tag], align 16
  %10 = alloca i64, align 8
  %11 = alloca ptr, align 8
  %12 = alloca ptr, align 8
  %13 = alloca ptr, align 8
  %14 = alloca i32, align 4
  store ptr %0, ptr %5, align 8
  store ptr %1, ptr %6, align 8
  store ptr %2, ptr %7, align 8
  call void @llvm.lifetime.start.p0(i64 8, ptr %8) #15
  call void @llvm.lifetime.start.p0(i64 24, ptr %9) #15
  call void @llvm.lifetime.start.p0(i64 8, ptr %10) #15
  call void @llvm.lifetime.start.p0(i64 8, ptr %11) #15
  call void @llvm.lifetime.start.p0(i64 8, ptr %12) #15
  call void @llvm.lifetime.start.p0(i64 8, ptr %13) #15
  %15 = load ptr, ptr %7, align 8
  %16 = icmp ne ptr %15, null
  br i1 %16, label %18, label %17

17:                                               ; preds = %3
  store ptr null, ptr %4, align 8
  store i32 1, ptr %14, align 4
  br label %91

18:                                               ; preds = %3
  %19 = load ptr, ptr %6, align 8
  %20 = icmp eq ptr %19, null
  br i1 %20, label %21, label %22

21:                                               ; preds = %18
  store ptr @.str, ptr %6, align 8
  br label %22

22:                                               ; preds = %21, %18
  %23 = load ptr, ptr %6, align 8
  %24 = call i64 @strlen(ptr noundef %23) #16
  store i64 %24, ptr %10, align 8
  %25 = load ptr, ptr %7, align 8
  %26 = call i64 @strlen(ptr noundef %25) #16
  %27 = add i64 1, %26
  store i64 %27, ptr %8, align 8
  %28 = getelementptr inbounds [1 x %struct.__va_list_tag], ptr %9, i64 0, i64 0
  call void @llvm.va_start.p0(ptr %28)
  br label %29

29:                                               ; preds = %47, %22
  %30 = getelementptr inbounds [1 x %struct.__va_list_tag], ptr %9, i64 0, i64 0
  %31 = getelementptr inbounds nuw %struct.__va_list_tag, ptr %30, i32 0, i32 0
  %32 = load i32, ptr %31, align 16
  %33 = icmp ule i32 %32, 40
  br i1 %33, label %34, label %39

34:                                               ; preds = %29
  %35 = getelementptr inbounds nuw %struct.__va_list_tag, ptr %30, i32 0, i32 3
  %36 = load ptr, ptr %35, align 16
  %37 = getelementptr i8, ptr %36, i32 %32
  %38 = add i32 %32, 8
  store i32 %38, ptr %31, align 16
  br label %43

39:                                               ; preds = %29
  %40 = getelementptr inbounds nuw %struct.__va_list_tag, ptr %30, i32 0, i32 2
  %41 = load ptr, ptr %40, align 8
  %42 = getelementptr i8, ptr %41, i32 8
  store ptr %42, ptr %40, align 8
  br label %43

43:                                               ; preds = %39, %34
  %44 = phi ptr [ %37, %34 ], [ %41, %39 ]
  %45 = load ptr, ptr %44, align 8
  store ptr %45, ptr %11, align 8
  %46 = icmp ne ptr %45, null
  br i1 %46, label %47, label %54

47:                                               ; preds = %43
  %48 = load i64, ptr %10, align 8
  %49 = load ptr, ptr %11, align 8
  %50 = call i64 @strlen(ptr noundef %49) #16
  %51 = add i64 %48, %50
  %52 = load i64, ptr %8, align 8
  %53 = add i64 %52, %51
  store i64 %53, ptr %8, align 8
  br label %29, !llvm.loop !9

54:                                               ; preds = %43
  %55 = getelementptr inbounds [1 x %struct.__va_list_tag], ptr %9, i64 0, i64 0
  call void @llvm.va_end.p0(ptr %55)
  %56 = load ptr, ptr %5, align 8
  %57 = load i64, ptr %8, align 8
  %58 = call noalias ptr @wmem_alloc(ptr noundef %56, i64 noundef %57) #17
  store ptr %58, ptr %12, align 8
  store ptr %58, ptr %13, align 8
  %59 = load ptr, ptr %13, align 8
  %60 = load ptr, ptr %7, align 8
  %61 = call ptr @g_stpcpy(ptr noundef %59, ptr noundef %60)
  store ptr %61, ptr %13, align 8
  %62 = getelementptr inbounds [1 x %struct.__va_list_tag], ptr %9, i64 0, i64 0
  call void @llvm.va_start.p0(ptr %62)
  br label %63

63:                                               ; preds = %81, %54
  %64 = getelementptr inbounds [1 x %struct.__va_list_tag], ptr %9, i64 0, i64 0
  %65 = getelementptr inbounds nuw %struct.__va_list_tag, ptr %64, i32 0, i32 0
  %66 = load i32, ptr %65, align 16
  %67 = icmp ule i32 %66, 40
  br i1 %67, label %68, label %73

68:                                               ; preds = %63
  %69 = getelementptr inbounds nuw %struct.__va_list_tag, ptr %64, i32 0, i32 3
  %70 = load ptr, ptr %69, align 16
  %71 = getelementptr i8, ptr %70, i32 %66
  %72 = add i32 %66, 8
  store i32 %72, ptr %65, align 16
  br label %77

73:                                               ; preds = %63
  %74 = getelementptr inbounds nuw %struct.__va_list_tag, ptr %64, i32 0, i32 2
  %75 = load ptr, ptr %74, align 8
  %76 = getelementptr i8, ptr %75, i32 8
  store ptr %76, ptr %74, align 8
  br label %77

77:                                               ; preds = %73, %68
  %78 = phi ptr [ %71, %68 ], [ %75, %73 ]
  %79 = load ptr, ptr %78, align 8
  store ptr %79, ptr %11, align 8
  %80 = icmp ne ptr %79, null
  br i1 %80, label %81, label %88

81:                                               ; preds = %77
  %82 = load ptr, ptr %13, align 8
  %83 = load ptr, ptr %6, align 8
  %84 = call ptr @g_stpcpy(ptr noundef %82, ptr noundef %83)
  store ptr %84, ptr %13, align 8
  %85 = load ptr, ptr %13, align 8
  %86 = load ptr, ptr %11, align 8
  %87 = call ptr @g_stpcpy(ptr noundef %85, ptr noundef %86)
  store ptr %87, ptr %13, align 8
  br label %63, !llvm.loop !10

88:                                               ; preds = %77
  %89 = getelementptr inbounds [1 x %struct.__va_list_tag], ptr %9, i64 0, i64 0
  call void @llvm.va_end.p0(ptr %89)
  %90 = load ptr, ptr %12, align 8
  store ptr %90, ptr %4, align 8
  store i32 1, ptr %14, align 4
  br label %91

91:                                               ; preds = %88, %17
  call void @llvm.lifetime.end.p0(i64 8, ptr %13) #15
  call void @llvm.lifetime.end.p0(i64 8, ptr %12) #15
  call void @llvm.lifetime.end.p0(i64 8, ptr %11) #15
  call void @llvm.lifetime.end.p0(i64 8, ptr %10) #15
  call void @llvm.lifetime.end.p0(i64 24, ptr %9) #15
  call void @llvm.lifetime.end.p0(i64 8, ptr %8) #15
  %92 = load ptr, ptr %4, align 8
  ret ptr %92
}