; Function Attrs: null_pointer_is_valid sspstrong uwtable
define noalias noundef ptr @wmem_strjoin(ptr noundef %0, ptr noundef %1, ptr noundef %2, ...) local_unnamed_addr #0 {
  %4 = alloca [1 x %struct.__va_list_tag], align 16
  call void @llvm.lifetime.start.p0(i64 24, ptr nonnull %4) #23
  %.not = icmp eq ptr %2, null
  br i1 %.not, label %53, label %5

5:                                                ; preds = %3
  %6 = icmp eq ptr %1, null
  %spec.store.select = select i1 %6, ptr @.str, ptr %1
  %7 = tail call i64 @strlen(ptr noundef nonnull dereferenceable(1) %spec.store.select) #24
  %8 = tail call i64 @strlen(ptr noundef nonnull dereferenceable(1) %2) #24
  %9 = add i64 %8, 1
  call void @llvm.va_start.p0(ptr nonnull %4)
  %.promoted = load i32, ptr %4, align 16
  %10 = getelementptr inbounds nuw i8, ptr %4, i64 8
  %11 = getelementptr inbounds nuw i8, ptr %4, i64 16
  %12 = load ptr, ptr %11, align 16
  %.promoted25 = load ptr, ptr %10, align 8
  br label %13

13:                                               ; preds = %28, %5
  %14 = phi ptr [ %.promoted25, %5 ], [ %24, %28 ]
  %15 = phi i32 [ %.promoted, %5 ], [ %25, %28 ]
  %.017 = phi i64 [ %9, %5 ], [ %31, %28 ]
  %16 = icmp ult i32 %15, 41
  br i1 %16, label %17, label %21

17:                                               ; preds = %13
  %18 = zext nneg i32 %15 to i64
  %19 = getelementptr i8, ptr %12, i64 %18
  %20 = add nuw nsw i32 %15, 8
  store i32 %20, ptr %4, align 16
  br label %23

21:                                               ; preds = %13
  %22 = getelementptr i8, ptr %14, i64 8
  store ptr %22, ptr %10, align 8
  br label %23

23:                                               ; preds = %21, %17
  %24 = phi ptr [ %14, %17 ], [ %22, %21 ]
  %25 = phi i32 [ %20, %17 ], [ %15, %21 ]
  %26 = phi ptr [ %19, %17 ], [ %14, %21 ]
  %27 = load ptr, ptr %26, align 8
  %.not23 = icmp eq ptr %27, null
  br i1 %.not23, label %32, label %28

28:                                               ; preds = %23
  %29 = call i64 @strlen(ptr noundef nonnull dereferenceable(1) %27) #24
  %30 = add i64 %.017, %7
  %31 = add i64 %30, %29
  br label %13, !llvm.loop !9

32:                                               ; preds = %23
  call void @llvm.va_end.p0(ptr nonnull %4)
  %33 = call noalias ptr @wmem_alloc(ptr noundef %0, i64 noundef %.017) #25
  %34 = call ptr @g_stpcpy(ptr noundef %33, ptr noundef nonnull %2)
  call void @llvm.va_start.p0(ptr nonnull %4)
  br label %35

35:                                               ; preds = %49, %32
  %.0 = phi ptr [ %34, %32 ], [ %51, %49 ]
  %36 = load i32, ptr %4, align 16
  %37 = icmp ult i32 %36, 41
  br i1 %37, label %38, label %43

38:                                               ; preds = %35
  %39 = load ptr, ptr %11, align 16
  %40 = zext nneg i32 %36 to i64
  %41 = getelementptr i8, ptr %39, i64 %40
  %42 = add nuw nsw i32 %36, 8
  store i32 %42, ptr %4, align 16
  br label %46

43:                                               ; preds = %35
  %44 = load ptr, ptr %10, align 8
  %45 = getelementptr i8, ptr %44, i64 8
  store ptr %45, ptr %10, align 8
  br label %46

46:                                               ; preds = %43, %38
  %47 = phi ptr [ %41, %38 ], [ %44, %43 ]
  %48 = load ptr, ptr %47, align 8
  %.not24 = icmp eq ptr %48, null
  br i1 %.not24, label %52, label %49

49:                                               ; preds = %46
  %50 = call ptr @g_stpcpy(ptr noundef %.0, ptr noundef nonnull %spec.store.select)
  %51 = call ptr @g_stpcpy(ptr noundef %50, ptr noundef nonnull %48)
  br label %35, !llvm.loop !10

52:                                               ; preds = %46
  call void @llvm.va_end.p0(ptr nonnull %4)
  br label %53

53:                                               ; preds = %3, %52
  %.016 = phi ptr [ %33, %52 ], [ null, %3 ]
  call void @llvm.lifetime.end.p0(i64 24, ptr nonnull %4) #23
  ret ptr %.016
}